; ModuleID = 'bench/boost/original/coroutine_context.ll'
source_filename = "bench/boost/original/coroutine_context.ll"
target datalayout = "e-m:e-p270:32:32-p271:32:32-p272:64:64-i64:64-i128:128-f80:128-n8:16:32:64-S128"
target triple = "x86_64-pc-linux-gnu"

%"struct.boost::coroutines::detail::data_t" = type { ptr, ptr }

@_ZN5boost10coroutines6detail17coroutine_contextC1Ev = unnamed_addr alias void (ptr), ptr @_ZN5boost10coroutines6detail17coroutine_contextC2Ev
@_ZN5boost10coroutines6detail17coroutine_contextC1EPFvNS_7context6detail10transfer_tEERKNS1_12preallocatedE = unnamed_addr alias void (ptr, ptr, ptr), ptr @_ZN5boost10coroutines6detail17coroutine_contextC2EPFvNS_7context6detail10transfer_tEERKNS1_12preallocatedE
@_ZN5boost10coroutines6detail17coroutine_contextC1ERKS2_ = unnamed_addr alias void (ptr, ptr), ptr @_ZN5boost10coroutines6detail17coroutine_contextC2ERKS2_

; Function Attrs: mustprogress nofree norecurse nosync nounwind willreturn memory(argmem: write) uwtable
define void @_ZN5boost10coroutines6detail17coroutine_contextC2Ev(ptr nocapture noundef nonnull writeonly align 8 dereferenceable(40) %0) unnamed_addr #0 align 2 personality ptr @__gxx_personality_v0 {
  tail call void @llvm.memset.p0.i64(ptr noundef nonnull align 8 dereferenceable(40) %0, i8 0, i64 40, i1 false)
  ret void
}

; Function Attrs: mustprogress uwtable
define void @_ZN5boost10coroutines6detail17coroutine_contextC2EPFvNS_7context6detail10transfer_tEERKNS1_12preallocatedE(ptr nocapture noundef nonnull align 8 dereferenceable(40) %0, ptr noundef %1, ptr nocapture noundef nonnull readonly align 8 dereferenceable(32) %2) unnamed_addr #1 align 2 {
  tail call void @llvm.memcpy.p0.p0.i64(ptr noundef nonnull align 8 dereferenceable(32) %0, ptr noundef nonnull align 8 dereferenceable(32) %2, i64 32, i1 false), !tbaa.struct !3
  %4 = getelementptr inbounds nuw i8, ptr %0, i64 32
  %5 = load ptr, ptr %0, align 8, !tbaa !10
  %6 = getelementptr inbounds nuw i8, ptr %0, i64 8
  %7 = load i64, ptr %6, align 8, !tbaa !14
  %8 = tail call ptr @make_fcontext(ptr noundef %5, i64 noundef %7, ptr noundef %1)
  store ptr %8, ptr %4, align 8, !tbaa !15
  ret void
}

; Function Attrs: mustprogress nocallback nofree nounwind willreturn memory(argmem: readwrite)
declare void @llvm.memcpy.p0.p0.i64(ptr noalias nocapture writeonly, ptr noalias nocapture readonly, i64, i1 immarg) #2

declare ptr @make_fcontext(ptr noundef, i64 noundef, ptr noundef) local_unnamed_addr #3

; Function Attrs: mustprogress nofree norecurse nosync nounwind willreturn memory(argmem: readwrite) uwtable
define void @_ZN5boost10coroutines6detail17coroutine_contextC2ERKS2_(ptr nocapture noundef nonnull writeonly align 8 dereferenceable(40) %0, ptr nocapture noundef nonnull readonly align 8 dereferenceable(40) %1) unnamed_addr #4 align 2 {
  tail call void @llvm.memcpy.p0.p0.i64(ptr noundef nonnull align 8 dereferenceable(32) %0, ptr noundef nonnull align 8 dereferenceable(32) %1, i64 32, i1 false), !tbaa.struct !3
  %3 = getelementptr inbounds nuw i8, ptr %0, i64 32
  %4 = getelementptr inbounds nuw i8, ptr %1, i64 32
  %5 = load ptr, ptr %4, align 8, !tbaa !15
  store ptr %5, ptr %3, align 8, !tbaa !15
  ret void
}

; Function Attrs: mustprogress nofree norecurse nosync nounwind willreturn memory(argmem: readwrite) uwtable
define noundef nonnull align 8 dereferenceable(40) ptr @_ZN5boost10coroutines6detail17coroutine_contextaSERKS2_(ptr noundef nonnull returned writeonly align 8 dereferenceable(40) %0, ptr noundef nonnull readonly align 8 dereferenceable(40) %1) local_unnamed_addr #4 align 2 {
  %3 = icmp eq ptr %0, %1
  br i1 %3, label %8, label %4

4:                                                ; preds = %2
  tail call void @llvm.memcpy.p0.p0.i64(ptr noundef nonnull align 8 dereferenceable(32) %0, ptr noundef nonnull align 8 dereferenceable(32) %1, i64 32, i1 false), !tbaa.struct !3
  %5 = getelementptr inbounds nuw i8, ptr %1, i64 32
  %6 = load ptr, ptr %5, align 8, !tbaa !15
  %7 = getelementptr inbounds nuw i8, ptr %0, i64 32
  store ptr %6, ptr %7, align 8, !tbaa !15
  br label %8

8:                                                ; preds = %2, %4
  ret ptr %0
}

; Function Attrs: mustprogress uwtable
define noundef ptr @_ZN5boost10coroutines6detail17coroutine_context4jumpERS2_Pv(ptr noundef nonnull align 8 dereferenceable(40) %0, ptr nocapture noundef nonnull readonly align 8 dereferenceable(40) %1, ptr noundef %2) local_unnamed_addr #1 align 2 {
  %4 = alloca %"struct.boost::coroutines::detail::data_t", align 8
  call void @llvm.lifetime.start.p0(i64 16, ptr nonnull %4) #7
  store ptr %0, ptr %4, align 8, !tbaa !16
  %5 = getelementptr inbounds nuw i8, ptr %4, i64 8
  store ptr %2, ptr %5, align 8, !tbaa !18
  %6 = getelementptr inbounds nuw i8, ptr %1, i64 32
  %7 = load ptr, ptr %6, align 8, !tbaa !15
  %8 = call { ptr, ptr } @jump_fcontext(ptr noundef %7, ptr noundef nonnull %4)
  %9 = extractvalue { ptr, ptr } %8, 0
  %10 = extractvalue { ptr, ptr } %8, 1
  %11 = load ptr, ptr %10, align 8, !tbaa !16
  %12 = getelementptr inbounds nuw i8, ptr %11, i64 32
  store ptr %9, ptr %12, align 8, !tbaa !15
  %13 = getelementptr inbounds nuw i8, ptr %10, i64 8
  %14 = load ptr, ptr %13, align 8, !tbaa !18
  call void @llvm.lifetime.end.p0(i64 16, ptr nonnull %4) #7
  ret ptr %14
}

; Function Attrs: mustprogress nocallback nofree nosync nounwind willreturn memory(argmem: readwrite)
declare void @llvm.lifetime.start.p0(i64 immarg, ptr nocapture) #5

declare { ptr, ptr } @jump_fcontext(ptr noundef, ptr noundef) local_unnamed_addr #3

; Function Attrs: mustprogress nocallback nofree nosync nounwind willreturn memory(argmem: readwrite)
declare void @llvm.lifetime.end.p0(i64 immarg, ptr nocapture) #5

declare i32 @__gxx_personality_v0(...)

; Function Attrs: nocallback nofree nounwind willreturn memory(argmem: write)
declare void @llvm.memset.p0.i64(ptr nocapture writeonly, i8, i64, i1 immarg) #6


!llvm.module.flags = !{!0, !1, !2}

!0 = !{i32 1, !"wchar_size", i32 4}
!1 = !{i32 8, !"PIC Level", i32 2}
!2 = !{i32 7, !"uwtable", i32 2}
!3 = !{i64 0, i64 8, !4, i64 8, i64 8, !8, i64 16, i64 8, !8, i64 24, i64 8, !4}
!4 = !{!5, !5, i64 0}
!5 = !{!"any pointer", !6, i64 0}
!6 = !{!"omnipotent char", !7, i64 0}
!7 = !{!"Simple C++ TBAA"}
!8 = !{!9, !9, i64 0}
!9 = !{!"long", !6, i64 0}
!10 = !{!11, !5, i64 0}
!11 = !{!"_ZTSN5boost10coroutines6detail17coroutine_contextE", !12, i64 0, !5, i64 32}
!12 = !{!"_ZTSN5boost10coroutines6detail12preallocatedE", !5, i64 0, !9, i64 8, !13, i64 16}
!13 = !{!"_ZTSN5boost10coroutines13stack_contextE", !9, i64 0, !5, i64 8}
!14 = !{!11, !9, i64 8}
!15 = !{!11, !5, i64 32}
!16 = !{!17, !5, i64 0}
!17 = !{!"_ZTSN5boost10coroutines6detail6data_tE", !5, i64 0, !5, i64 8}
!18 = !{!17, !5, i64 8}
